target datalayout = "e-m:e-p270:32:32-p271:32:32-p272:64:64-i64:64-i128:128-f80:128-n8:16:32:64-S128"
target triple = "x86_64-pc-linux-gnu"

%struct.AVFormatContext = type { ptr, ptr, ptr, ptr, ptr, i32, i32, ptr, i32, ptr, i32, ptr, ptr, i64, i64, i64, i32, i32, i32, i64, i64, ptr, i32, i32, ptr, i32, i32, i32, i32, ptr, i64, i32, i32, %struct.AVIOInterruptCB, i32, i32, i32, i32, i64, i32, i32, i32, i32, i32, i32, i32, i32, i32, i32, i32, i32, i64, i32, i32, i32, i32, i32, ptr, ptr, ptr, ptr, i32, ptr, ptr, ptr, ptr, i32, ptr, ptr, i64, ptr, ptr, ptr, i64 }
%struct.AVIOInterruptCB = type { ptr, ptr }
%struct.TeeContext = type { ptr, i32, i32, ptr, i32, ptr }
%struct.TeeSlave = type { ptr, ptr, i32, i32, ptr, ptr, i32 }

@.str.39 = private unnamed_addr constant [25 x i8] c"All tee outputs failed.\0A\00", align 1
@.str.40 = private unnamed_addr constant [35 x i8] c"Slave muxer #%u failed, aborting.\0A\00", align 1
@.str.41 = private unnamed_addr constant [59 x i8] c"Slave muxer #%u failed: %s, continuing with %u/%u slaves.\0A\00", align 1

; Function Attrs: inlinehint nounwind uwtable
define internal ptr @av_make_error_string(ptr noundef %0, i64 noundef %1, i32 noundef %2) #4 {
  %4 = alloca ptr, align 8
  %5 = alloca i64, align 8
  %6 = alloca i32, align 4
  store ptr %0, ptr %4, align 8, !tbaa !30
  store i64 %1, ptr %5, align 8, !tbaa !120
  store i32 %2, ptr %6, align 4, !tbaa !28
  %7 = load i32, ptr %6, align 4, !tbaa !28
  %8 = load ptr, ptr %4, align 8, !tbaa !30
  %9 = load i64, ptr %5, align 8, !tbaa !120
  %10 = call i32 @av_strerror(i32 noundef %7, ptr noundef %8, i64 noundef %9)
  %11 = load ptr, ptr %4, align 8, !tbaa !30
  ret ptr %11
}

; Function Attrs: nounwind uwtable
define internal i32 @tee_process_slave_failure(ptr noundef %0, i32 noundef %1, i32 noundef %2) #0 {
  %4 = alloca i32, align 4
  %5 = alloca ptr, align 8
  %6 = alloca i32, align 4
  %7 = alloca i32, align 4
  %8 = alloca ptr, align 8
  %9 = alloca ptr, align 8
  %10 = alloca i32, align 4
  %11 = alloca [64 x i8], align 1
  store ptr %0, ptr %5, align 8, !tbaa !4
  store i32 %1, ptr %6, align 4, !tbaa !28
  store i32 %2, ptr %7, align 4, !tbaa !28
  call void @llvm.lifetime.start.p0(i64 8, ptr %8) #8
  %12 = load ptr, ptr %5, align 8, !tbaa !4
  %13 = getelementptr inbounds nuw %struct.AVFormatContext, ptr %12, i32 0, i32 3
  %14 = load ptr, ptr %13, align 8, !tbaa !9
  store ptr %14, ptr %8, align 8, !tbaa !26
  call void @llvm.lifetime.start.p0(i64 8, ptr %9) #8
  %15 = load ptr, ptr %8, align 8, !tbaa !26
  %16 = getelementptr inbounds nuw %struct.TeeContext, ptr %15, i32 0, i32 3
  %17 = load ptr, ptr %16, align 8, !tbaa !36
  %18 = load i32, ptr %6, align 4, !tbaa !28
  %19 = zext i32 %18 to i64
  %20 = getelementptr inbounds nuw %struct.TeeSlave, ptr %17, i64 %19
  store ptr %20, ptr %9, align 8, !tbaa !72
  %21 = load ptr, ptr %8, align 8, !tbaa !26
  %22 = getelementptr inbounds nuw %struct.TeeContext, ptr %21, i32 0, i32 2
  %23 = load i32, ptr %22, align 4, !tbaa !38
  %24 = add i32 %23, -1
  store i32 %24, ptr %22, align 4, !tbaa !38
  %25 = load ptr, ptr %9, align 8, !tbaa !72
  %26 = call i32 @close_slave(ptr noundef %25)
  %27 = load ptr, ptr %8, align 8, !tbaa !26
  %28 = getelementptr inbounds nuw %struct.TeeContext, ptr %27, i32 0, i32 2
  %29 = load i32, ptr %28, align 4, !tbaa !38
  %30 = icmp ne i32 %29, 0
  br i1 %30, label %34, label %31

31:                                               ; preds = %3
  %32 = load ptr, ptr %5, align 8, !tbaa !4
  call void (ptr, i32, ptr, ...) @av_log(ptr noundef %32, i32 noundef 16, ptr noundef @.str.39)
  %33 = load i32, ptr %7, align 4, !tbaa !28
  store i32 %33, ptr %4, align 4
  store i32 1, ptr %10, align 4
  br label %55

34:                                               ; preds = %3
  %35 = load ptr, ptr %9, align 8, !tbaa !72
  %36 = getelementptr inbounds nuw %struct.TeeSlave, ptr %35, i32 0, i32 2
  %37 = load i32, ptr %36, align 8, !tbaa !102
  %38 = icmp eq i32 %37, 1
  br i1 %38, label %39, label %43

39:                                               ; preds = %34
  %40 = load ptr, ptr %5, align 8, !tbaa !4
  %41 = load i32, ptr %6, align 4, !tbaa !28
  call void (ptr, i32, ptr, ...) @av_log(ptr noundef %40, i32 noundef 16, ptr noundef @.str.40, i32 noundef %41)
  %42 = load i32, ptr %7, align 4, !tbaa !28
  store i32 %42, ptr %4, align 4
  store i32 1, ptr %10, align 4
  br label %55

43:                                               ; preds = %34
  %44 = load ptr, ptr %5, align 8, !tbaa !4
  %45 = load i32, ptr %6, align 4, !tbaa !28
  call void @llvm.memset.p0.i64(ptr align 1 %11, i8 0, i64 64, i1 false)
  %46 = getelementptr inbounds [64 x i8], ptr %11, i64 0, i64 0
  %47 = load i32, ptr %7, align 4, !tbaa !28
  %48 = call ptr @av_make_error_string(ptr noundef %46, i64 noundef 64, i32 noundef %47)
  %49 = load ptr, ptr %8, align 8, !tbaa !26
  %50 = getelementptr inbounds nuw %struct.TeeContext, ptr %49, i32 0, i32 2
  %51 = load i32, ptr %50, align 4, !tbaa !38
  %52 = load ptr, ptr %8, align 8, !tbaa !26
  %53 = getelementptr inbounds nuw %struct.TeeContext, ptr %52, i32 0, i32 1
  %54 = load i32, ptr %53, align 8, !tbaa !39
  call void (ptr, i32, ptr, ...) @av_log(ptr noundef %44, i32 noundef 16, ptr noundef @.str.41, i32 noundef %45, ptr noundef %48, i32 noundef %51, i32 noundef %54)
  store i32 0, ptr %4, align 4
  store i32 1, ptr %10, align 4
  br label %55

55:                                               ; preds = %43, %39, %31
  call void @llvm.lifetime.end.p0(i64 8, ptr %9) #8
  call void @llvm.lifetime.end.p0(i64 8, ptr %8) #8
  %56 = load i32, ptr %4, align 4
  ret i32 %56
}