; Function Attrs: nounwind uwtable
define internal fastcc range(i32 -2147483648, 1) i32 @tee_process_slave_failure(ptr noundef %0, i32 noundef %1, i32 noundef range(i32 -2147483648, 0) %2) unnamed_addr #0 {
  %4 = alloca [64 x i8], align 1
  %5 = getelementptr inbounds nuw i8, ptr %0, i64 24
  %6 = load ptr, ptr %5, align 8, !tbaa !4
  %7 = getelementptr inbounds nuw i8, ptr %6, i64 16
  %8 = load ptr, ptr %7, align 8, !tbaa !30
  %9 = zext i32 %1 to i64
  %10 = getelementptr inbounds nuw %struct.TeeSlave, ptr %8, i64 %9
  %11 = getelementptr inbounds nuw i8, ptr %6, i64 12
  %12 = load i32, ptr %11, align 4, !tbaa !32
  %13 = add i32 %12, -1
  store i32 %13, ptr %11, align 4, !tbaa !32
  %14 = tail call fastcc i32 @close_slave(ptr noundef %10)
  %15 = load i32, ptr %11, align 4, !tbaa !32
  %.not = icmp eq i32 %15, 0
  br i1 %.not, label %16, label %17

16:                                               ; preds = %3
  tail call void (ptr, i32, ptr, ...) @av_log(ptr noundef nonnull %0, i32 noundef 16, ptr noundef nonnull @.str.39) #6
  br label %27

17:                                               ; preds = %3
  %18 = getelementptr inbounds nuw i8, ptr %10, i64 16
  %19 = load i32, ptr %18, align 8, !tbaa !46
  %20 = icmp eq i32 %19, 1
  br i1 %20, label %21, label %22

21:                                               ; preds = %17
  tail call void (ptr, i32, ptr, ...) @av_log(ptr noundef nonnull %0, i32 noundef 16, ptr noundef nonnull @.str.40, i32 noundef %1) #6
  br label %27

22:                                               ; preds = %17
  call void @llvm.memset.p0.i64(ptr noundef nonnull align 1 dereferenceable(64) %4, i8 0, i64 64, i1 false)
  %23 = call i32 @av_strerror(i32 noundef range(i32 -2147483648, 0) %2, ptr noundef nonnull %4, i64 noundef 64) #6
  %24 = load i32, ptr %11, align 4, !tbaa !32
  %25 = getelementptr inbounds nuw i8, ptr %6, i64 8
  %26 = load i32, ptr %25, align 8, !tbaa !33
  call void (ptr, i32, ptr, ...) @av_log(ptr noundef nonnull %0, i32 noundef 16, ptr noundef nonnull @.str.41, i32 noundef %1, ptr noundef nonnull %4, i32 noundef %24, i32 noundef %26) #6
  br label %27

27:                                               ; preds = %22, %21, %16
  %.0 = phi i32 [ %2, %21 ], [ 0, %22 ], [ %2, %16 ]
  ret i32 %.0
}